; Function Attrs: mustprogress uwtable
define dso_local ptr @_ZN17ImplicitDepLoader16PreallocateSpaceEP4Edgei(ptr noundef nonnull readnone align 8 captures(none) dereferenceable(48) %0, ptr noundef %1, i32 noundef %2) local_unnamed_addr #0 align 2 {
  %4 = alloca ptr, align 8
  %5 = getelementptr inbounds nuw i8, ptr %1, i64 16
  %6 = getelementptr inbounds nuw i8, ptr %1, i64 24
  %7 = load ptr, ptr %6, align 8, !tbaa !34
  %8 = getelementptr inbounds nuw i8, ptr %1, i64 148
  %9 = load i32, ptr %8, align 4, !tbaa !98
  %10 = sext i32 %9 to i64
  %11 = sub nsw i64 0, %10
  %12 = getelementptr inbounds ptr, ptr %7, i64 %11
  %13 = sext i32 %2 to i64
  call void @llvm.lifetime.start.p0(i64 8, ptr nonnull %4) #27
  store ptr null, ptr %4, align 8, !tbaa !35
  %14 = load ptr, ptr %5, align 8, !tbaa !34
  %15 = ptrtoint ptr %12 to i64
  %16 = ptrtoint ptr %14 to i64
  %17 = sub i64 %15, %16
  %18 = getelementptr inbounds i8, ptr %14, i64 %17
  call void @_ZNSt6vectorIP4NodeSaIS1_EE14_M_fill_insertEN9__gnu_cxx17__normal_iteratorIPS1_S3_EEmRKS1_(ptr noundef nonnull align 8 dereferenceable(24) %5, ptr %18, i64 noundef %13, ptr noundef nonnull align 8 dereferenceable(8) %4)
  call void @llvm.lifetime.end.p0(i64 8, ptr nonnull %4) #27
  %19 = getelementptr inbounds nuw i8, ptr %1, i64 144
  %20 = load i32, ptr %19, align 8, !tbaa !107
  %21 = add nsw i32 %20, %2
  store i32 %21, ptr %19, align 8, !tbaa !107
  %22 = load ptr, ptr %6, align 8, !tbaa !34
  %23 = load i32, ptr %8, align 4, !tbaa !98
  %24 = sext i32 %23 to i64
  %25 = sub nsw i64 0, %24
  %26 = getelementptr inbounds ptr, ptr %22, i64 %25
  %27 = sub nsw i64 0, %13
  %28 = getelementptr inbounds ptr, ptr %26, i64 %27
  ret ptr %28
}